target datalayout = "e-m:e-p270:32:32-p271:32:32-p272:64:64-i64:64-i128:128-f80:128-n8:16:32:64-S128"
target triple = "x86_64-pc-linux-gnu"

%"class.std::__cxx11::basic_string" = type { %"struct.std::__cxx11::basic_string<char>::_Alloc_hider", i64, %union.anon }
%"struct.std::__cxx11::basic_string<char>::_Alloc_hider" = type { ptr }
%union.anon = type { i64, [8 x i8] }
%"class.std::basic_ifstream" = type { %"class.std::basic_istream.base", %"class.std::basic_filebuf", %"class.std::basic_ios" }
%"class.std::basic_istream.base" = type { ptr, i64 }
%"class.std::basic_filebuf" = type { %"class.std::basic_streambuf", %union.pthread_mutex_t, %"class.std::__basic_file", i32, %struct.__mbstate_t, %struct.__mbstate_t, %struct.__mbstate_t, ptr, i64, i8, i8, i8, i8, ptr, ptr, i8, ptr, ptr, i64, ptr, ptr }
%"class.std::basic_streambuf" = type { ptr, ptr, ptr, ptr, ptr, ptr, ptr, %"class.std::locale" }
%"class.std::locale" = type { ptr }
%union.pthread_mutex_t = type { %struct.__pthread_mutex_s }
%struct.__pthread_mutex_s = type { i32, i32, i32, i32, i32, i16, i16, %struct.__pthread_internal_list }
%struct.__pthread_internal_list = type { ptr, ptr }
%"class.std::__basic_file" = type <{ ptr, i8, [7 x i8] }>
%struct.__mbstate_t = type { i32, %union.anon.61 }
%union.anon.61 = type { i32 }
%"class.std::basic_ios" = type { %"class.std::ios_base", ptr, i8, i8, ptr, ptr, ptr, ptr }
%"class.std::ios_base" = type { ptr, i64, i64, i32, i32, i32, ptr, %"struct.std::ios_base::_Words", [8 x %"struct.std::ios_base::_Words"], i32, ptr, %"class.std::locale" }
%"struct.std::ios_base::_Words" = type { ptr, i64 }

@.str.85 = private unnamed_addr constant [47 x i8] c"fail to open probabilities configuration file!\00", align 1

; Function Attrs: mustprogress uwtable
define dso_local noundef zeroext i1 @_ZN13Probabilities10parse_lineERNSt7__cxx1112basic_stringIcSt11char_traitsIcESaIcEEES6_(ptr noundef nonnull align 8 dereferenceable(288) %0, ptr noundef nonnull align 8 dereferenceable(32) %1, ptr noundef nonnull align 8 dereferenceable(32) %2) #4 align 2 {
  %4 = alloca i1, align 1
  %5 = alloca ptr, align 8
  %6 = alloca ptr, align 8
  %7 = alloca ptr, align 8
  %8 = alloca i8, align 1
  %9 = alloca i8, align 1
  %10 = alloca i8, align 1
  store ptr %0, ptr %5, align 8
  store ptr %1, ptr %6, align 8
  store ptr %2, ptr %7, align 8
  %11 = load ptr, ptr %5, align 8
  %12 = load ptr, ptr %7, align 8
  %13 = call noundef signext i8 @_ZN11StringUtils19first_nonspace_charERKNSt7__cxx1112basic_stringIcSt11char_traitsIcESaIcEEE(ptr noundef nonnull align 8 dereferenceable(32) %12)
  store i8 %13, ptr %8, align 1
  store i8 0, ptr %9, align 1
  store i8 0, ptr %10, align 1
  %14 = load i8, ptr %8, align 1
  %15 = sext i8 %14 to i32
  %16 = icmp eq i32 %15, 0
  br i1 %16, label %17, label %18

17:                                               ; preds = %3
  br label %53

18:                                               ; preds = %3
  %19 = load i8, ptr %8, align 1
  %20 = sext i8 %19 to i32
  %21 = icmp eq i32 %20, 35
  br i1 %21, label %22, label %23

22:                                               ; preds = %18
  store i1 true, ptr %4, align 1
  br label %56

23:                                               ; preds = %18
  %24 = load i8, ptr %8, align 1
  %25 = sext i8 %24 to i32
  %26 = icmp eq i32 %25, 91
  br i1 %26, label %27, label %34

27:                                               ; preds = %23
  store i8 0, ptr %10, align 1
  %28 = load i8, ptr %10, align 1
  %29 = trunc i8 %28 to i1
  %30 = load ptr, ptr %6, align 8
  %31 = load ptr, ptr %7, align 8
  %32 = call noundef zeroext i1 @_ZN13Probabilities25parse_group_probabilitiesEbRNSt7__cxx1112basic_stringIcSt11char_traitsIcESaIcEEERKS5_(ptr noundef nonnull align 8 dereferenceable(288) %11, i1 noundef zeroext %29, ptr noundef nonnull align 8 dereferenceable(32) %30, ptr noundef nonnull align 8 dereferenceable(32) %31)
  %33 = zext i1 %32 to i8
  store i8 %33, ptr %9, align 1
  br label %51

34:                                               ; preds = %23
  %35 = load i8, ptr %8, align 1
  %36 = sext i8 %35 to i32
  %37 = icmp eq i32 %36, 40
  br i1 %37, label %38, label %45

38:                                               ; preds = %34
  store i8 1, ptr %10, align 1
  %39 = load i8, ptr %10, align 1
  %40 = trunc i8 %39 to i1
  %41 = load ptr, ptr %6, align 8
  %42 = load ptr, ptr %7, align 8
  %43 = call noundef zeroext i1 @_ZN13Probabilities25parse_group_probabilitiesEbRNSt7__cxx1112basic_stringIcSt11char_traitsIcESaIcEEERKS5_(ptr noundef nonnull align 8 dereferenceable(288) %11, i1 noundef zeroext %40, ptr noundef nonnull align 8 dereferenceable(32) %41, ptr noundef nonnull align 8 dereferenceable(32) %42)
  %44 = zext i1 %43 to i8
  store i8 %44, ptr %9, align 1
  br label %50

45:                                               ; preds = %34
  %46 = load ptr, ptr %6, align 8
  %47 = load ptr, ptr %7, align 8
  %48 = call noundef zeroext i1 @_ZN13Probabilities24parse_single_probabilityERNSt7__cxx1112basic_stringIcSt11char_traitsIcESaIcEEERKS5_(ptr noundef nonnull align 8 dereferenceable(288) %11, ptr noundef nonnull align 8 dereferenceable(32) %46, ptr noundef nonnull align 8 dereferenceable(32) %47)
  %49 = zext i1 %48 to i8
  store i8 %49, ptr %9, align 1
  br label %50

50:                                               ; preds = %45, %38
  br label %51

51:                                               ; preds = %50, %27
  br label %52

52:                                               ; preds = %51
  br label %53

53:                                               ; preds = %52, %17
  %54 = load i8, ptr %9, align 1
  %55 = trunc i8 %54 to i1
  store i1 %55, ptr %4, align 1
  br label %56

56:                                               ; preds = %53, %22
  %57 = load i1, ptr %4, align 1
  ret i1 %57
}

; Function Attrs: mustprogress uwtable
define dso_local noundef zeroext i1 @_ZN13Probabilities19parse_configurationERNSt7__cxx1112basic_stringIcSt11char_traitsIcESaIcEEERKS5_(ptr noundef nonnull align 8 dereferenceable(288) %0, ptr noundef nonnull align 8 dereferenceable(32) %1, ptr noundef nonnull align 8 dereferenceable(32) %2) #4 align 2 personality ptr @__gxx_personality_v0 {
  %4 = alloca i1, align 1
  %5 = alloca ptr, align 8
  %6 = alloca ptr, align 8
  %7 = alloca ptr, align 8
  %8 = alloca %"class.std::basic_ifstream", align 8
  %9 = alloca ptr, align 8
  %10 = alloca i32, align 4
  %11 = alloca i32, align 4
  %12 = alloca %"class.std::__cxx11::basic_string", align 8
  store ptr %0, ptr %5, align 8
  store ptr %1, ptr %6, align 8
  store ptr %2, ptr %7, align 8
  %13 = load ptr, ptr %5, align 8
  %14 = load ptr, ptr %7, align 8
  %15 = call noundef ptr @_ZNKSt7__cxx1112basic_stringIcSt11char_traitsIcESaIcEE5c_strEv(ptr noundef nonnull align 8 dereferenceable(32) %14) #3
  call void @_ZNSt14basic_ifstreamIcSt11char_traitsIcEEC1EPKcSt13_Ios_Openmode(ptr noundef nonnull align 8 dereferenceable(256) %8, ptr noundef %15, i32 noundef 8)
  %16 = invoke noundef zeroext i1 @_ZNSt14basic_ifstreamIcSt11char_traitsIcEE7is_openEv(ptr noundef nonnull align 8 dereferenceable(256) %8)
          to label %17 unwind label %22

17:                                               ; preds = %3
  br i1 %16, label %26, label %18

18:                                               ; preds = %17
  %19 = load ptr, ptr %6, align 8
  %20 = invoke noundef nonnull align 8 dereferenceable(32) ptr @_ZNSt7__cxx1112basic_stringIcSt11char_traitsIcESaIcEEaSEPKc(ptr noundef nonnull align 8 dereferenceable(32) %19, ptr noundef @.str.85)
          to label %21 unwind label %22

21:                                               ; preds = %18
  store i1 false, ptr %4, align 1
  store i32 1, ptr %11, align 4
  br label %54

22:                                               ; preds = %18, %3
  %23 = landingpad { ptr, i32 }
          cleanup
  %24 = extractvalue { ptr, i32 } %23, 0
  store ptr %24, ptr %9, align 8
  %25 = extractvalue { ptr, i32 } %23, 1
  store i32 %25, ptr %10, align 4
  br label %56

26:                                               ; preds = %17
  call void @_ZNSt7__cxx1112basic_stringIcSt11char_traitsIcESaIcEEC1Ev(ptr noundef nonnull align 8 dereferenceable(32) %12) #3
  br label %27

27:                                               ; preds = %50, %40, %26
  %28 = load ptr, ptr %8, align 8
  %29 = getelementptr i8, ptr %28, i64 -24
  %30 = load i64, ptr %29, align 8
  %31 = getelementptr inbounds i8, ptr %8, i64 %30
  %32 = invoke noundef zeroext i1 @_ZNKSt9basic_iosIcSt11char_traitsIcEE3eofEv(ptr noundef nonnull align 8 dereferenceable(264) %31)
          to label %33 unwind label %41

33:                                               ; preds = %27
  %34 = xor i1 %32, true
  br i1 %34, label %35, label %51

35:                                               ; preds = %33
  %36 = invoke noundef nonnull align 8 dereferenceable(16) ptr @_ZSt7getlineIcSt11char_traitsIcESaIcEERSt13basic_istreamIT_T0_ES7_RNSt7__cxx1112basic_stringIS4_S5_T1_EE(ptr noundef nonnull align 8 dereferenceable(16) %8, ptr noundef nonnull align 8 dereferenceable(32) %12)
          to label %37 unwind label %41

37:                                               ; preds = %35
  %38 = invoke noundef zeroext i1 @_ZN11StringUtils10empty_lineERKNSt7__cxx1112basic_stringIcSt11char_traitsIcESaIcEEE(ptr noundef nonnull align 8 dereferenceable(32) %12)
          to label %39 unwind label %41

39:                                               ; preds = %37
  br i1 %38, label %40, label %45

40:                                               ; preds = %39
  br label %27, !llvm.loop !15

41:                                               ; preds = %51, %45, %37, %35, %27
  %42 = landingpad { ptr, i32 }
          cleanup
  %43 = extractvalue { ptr, i32 } %42, 0
  store ptr %43, ptr %9, align 8
  %44 = extractvalue { ptr, i32 } %42, 1
  store i32 %44, ptr %10, align 4
  call void @_ZNSt7__cxx1112basic_stringIcSt11char_traitsIcESaIcEED1Ev(ptr noundef nonnull align 8 dereferenceable(32) %12) #3
  br label %56

45:                                               ; preds = %39
  %46 = load ptr, ptr %6, align 8
  %47 = invoke noundef zeroext i1 @_ZN13Probabilities10parse_lineERNSt7__cxx1112basic_stringIcSt11char_traitsIcESaIcEEES6_(ptr noundef nonnull align 8 dereferenceable(288) %13, ptr noundef nonnull align 8 dereferenceable(32) %46, ptr noundef nonnull align 8 dereferenceable(32) %12)
          to label %48 unwind label %41

48:                                               ; preds = %45
  br i1 %47, label %50, label %49

49:                                               ; preds = %48
  store i1 false, ptr %4, align 1
  store i32 1, ptr %11, align 4
  br label %53

50:                                               ; preds = %48
  br label %27, !llvm.loop !15

51:                                               ; preds = %33
  invoke void @_ZNSt14basic_ifstreamIcSt11char_traitsIcEE5closeEv(ptr noundef nonnull align 8 dereferenceable(256) %8)
          to label %52 unwind label %41

52:                                               ; preds = %51
  store i1 true, ptr %4, align 1
  store i32 1, ptr %11, align 4
  br label %53

53:                                               ; preds = %52, %49
  call void @_ZNSt7__cxx1112basic_stringIcSt11char_traitsIcESaIcEED1Ev(ptr noundef nonnull align 8 dereferenceable(32) %12) #3
  br label %54

54:                                               ; preds = %53, %21
  call void @_ZNSt14basic_ifstreamIcSt11char_traitsIcEED1Ev(ptr noundef nonnull align 8 dereferenceable(256) %8) #3
  %55 = load i1, ptr %4, align 1
  ret i1 %55

56:                                               ; preds = %41, %22
  call void @_ZNSt14basic_ifstreamIcSt11char_traitsIcEED1Ev(ptr noundef nonnull align 8 dereferenceable(256) %8) #3
  br label %57

57:                                               ; preds = %56
  %58 = load ptr, ptr %9, align 8
  %59 = load i32, ptr %10, align 4
  %60 = insertvalue { ptr, i32 } poison, ptr %58, 0
  %61 = insertvalue { ptr, i32 } %60, i32 %59, 1
  resume { ptr, i32 } %61
}