; Function Attrs: mustprogress uwtable
define dso_local noundef zeroext i1 @_ZN13Probabilities19parse_configurationERNSt7__cxx1112basic_stringIcSt11char_traitsIcESaIcEEERKS5_(ptr noundef nonnull align 8 dereferenceable(288) %0, ptr noundef nonnull align 8 dereferenceable(32) %1, ptr noundef nonnull align 8 dereferenceable(32) %2) local_unnamed_addr #3 align 2 personality ptr @__gxx_personality_v0 {
  %4 = alloca %"class.std::basic_ifstream", align 8
  %5 = alloca %"class.std::__cxx11::basic_string", align 8
  %6 = tail call noundef ptr @_ZNKSt7__cxx1112basic_stringIcSt11char_traitsIcESaIcEE5c_strEv(ptr noundef nonnull align 8 dereferenceable(32) %2) #22
  call void @_ZNSt14basic_ifstreamIcSt11char_traitsIcEEC1EPKcSt13_Ios_Openmode(ptr noundef nonnull align 8 dereferenceable(256) %4, ptr noundef %6, i32 noundef 8)
  %7 = invoke noundef zeroext i1 @_ZNSt14basic_ifstreamIcSt11char_traitsIcEE7is_openEv(ptr noundef nonnull align 8 dereferenceable(256) %4)
          to label %8 unwind label %11

8:                                                ; preds = %3
  br i1 %7, label %13, label %9

9:                                                ; preds = %8
  %10 = invoke noundef nonnull align 8 dereferenceable(32) ptr @_ZNSt7__cxx1112basic_stringIcSt11char_traitsIcESaIcEEaSEPKc(ptr noundef nonnull align 8 dereferenceable(32) %1, ptr noundef nonnull @.str.85)
          to label %34 unwind label %11

11:                                               ; preds = %9, %3
  %12 = landingpad { ptr, i32 }
          cleanup
  br label %35

13:                                               ; preds = %8
  call void @_ZNSt7__cxx1112basic_stringIcSt11char_traitsIcESaIcEEC1Ev(ptr noundef nonnull align 8 dereferenceable(32) %5) #22
  br label %.backedge

.backedge:                                        ; preds = %.backedge.backedge, %13
  %14 = load ptr, ptr %4, align 8
  %15 = getelementptr i8, ptr %14, i64 -24
  %16 = load i64, ptr %15, align 8
  %17 = getelementptr inbounds i8, ptr %4, i64 %16
  %18 = invoke noundef zeroext i1 @_ZNKSt9basic_iosIcSt11char_traitsIcEE3eofEv(ptr noundef nonnull align 8 dereferenceable(264) %17)
          to label %19 unwind label %.loopexit

19:                                               ; preds = %.backedge
  br i1 %18, label %33, label %20

20:                                               ; preds = %19
  %21 = invoke noundef nonnull align 8 dereferenceable(16) ptr @_ZSt7getlineIcSt11char_traitsIcESaIcEERSt13basic_istreamIT_T0_ES7_RNSt7__cxx1112basic_stringIS4_S5_T1_EE(ptr noundef nonnull align 8 dereferenceable(16) %4, ptr noundef nonnull align 8 dereferenceable(32) %5)
          to label %22 unwind label %.loopexit

22:                                               ; preds = %20
  %23 = invoke noundef zeroext i1 @_ZN11StringUtils10empty_lineERKNSt7__cxx1112basic_stringIcSt11char_traitsIcESaIcEEE(ptr noundef nonnull align 8 dereferenceable(32) %5)
          to label %24 unwind label %.loopexit

24:                                               ; preds = %22
  br i1 %23, label %.backedge.backedge, label %26

.loopexit:                                        ; preds = %.invoke, %.backedge, %20, %22, %26, %31
  %lpad.loopexit = landingpad { ptr, i32 }
          cleanup
  br label %25

.loopexit.split-lp:                               ; preds = %33
  %lpad.loopexit.split-lp = landingpad { ptr, i32 }
          cleanup
  br label %25

25:                                               ; preds = %.loopexit.split-lp, %.loopexit
  %lpad.phi = phi { ptr, i32 } [ %lpad.loopexit, %.loopexit ], [ %lpad.loopexit.split-lp, %.loopexit.split-lp ]
  call void @_ZNSt7__cxx1112basic_stringIcSt11char_traitsIcESaIcEED1Ev(ptr noundef nonnull align 8 dereferenceable(32) %5) #22
  br label %35

26:                                               ; preds = %24
  %27 = invoke noundef signext i8 @_ZN11StringUtils19first_nonspace_charERKNSt7__cxx1112basic_stringIcSt11char_traitsIcESaIcEEE(ptr noundef nonnull align 8 dereferenceable(32) %5)
          to label %.noexc unwind label %.loopexit

.noexc:                                           ; preds = %26
  switch i8 %27, label %31 [
    i8 0, label %_ZN13Probabilities10parse_lineERNSt7__cxx1112basic_stringIcSt11char_traitsIcESaIcEEES6_.exit.thread
    i8 35, label %.backedge.backedge
    i8 91, label %.invoke
    i8 40, label %30
  ]

.backedge.backedge:                               ; preds = %.noexc, %31, %24, %_ZN13Probabilities10parse_lineERNSt7__cxx1112basic_stringIcSt11char_traitsIcESaIcEEES6_.exit
  br label %.backedge, !llvm.loop !36

.invoke:                                          ; preds = %.noexc, %30
  %28 = phi i1 [ true, %30 ], [ false, %.noexc ]
  %29 = invoke noundef zeroext i1 @_ZN13Probabilities25parse_group_probabilitiesEbRNSt7__cxx1112basic_stringIcSt11char_traitsIcESaIcEEERKS5_(ptr noundef nonnull align 8 dereferenceable(288) %0, i1 noundef zeroext %28, ptr noundef nonnull align 8 dereferenceable(32) %1, ptr noundef nonnull align 8 dereferenceable(32) %5)
          to label %_ZN13Probabilities10parse_lineERNSt7__cxx1112basic_stringIcSt11char_traitsIcESaIcEEES6_.exit unwind label %.loopexit

30:                                               ; preds = %.noexc
  br label %.invoke

31:                                               ; preds = %.noexc
  %32 = invoke noundef zeroext i1 @_ZN13Probabilities24parse_single_probabilityERNSt7__cxx1112basic_stringIcSt11char_traitsIcESaIcEEERKS5_(ptr noundef nonnull align 8 dereferenceable(288) %0, ptr nonnull align 8 poison, ptr noundef nonnull align 8 dereferenceable(32) %5)
          to label %.backedge.backedge unwind label %.loopexit

_ZN13Probabilities10parse_lineERNSt7__cxx1112basic_stringIcSt11char_traitsIcESaIcEEES6_.exit: ; preds = %.invoke
  br i1 %29, label %.backedge.backedge, label %_ZN13Probabilities10parse_lineERNSt7__cxx1112basic_stringIcSt11char_traitsIcESaIcEEES6_.exit.thread

33:                                               ; preds = %19
  invoke void @_ZNSt14basic_ifstreamIcSt11char_traitsIcEE5closeEv(ptr noundef nonnull align 8 dereferenceable(256) %4)
          to label %_ZN13Probabilities10parse_lineERNSt7__cxx1112basic_stringIcSt11char_traitsIcESaIcEEES6_.exit.thread unwind label %.loopexit.split-lp

_ZN13Probabilities10parse_lineERNSt7__cxx1112basic_stringIcSt11char_traitsIcESaIcEEES6_.exit.thread: ; preds = %.noexc, %_ZN13Probabilities10parse_lineERNSt7__cxx1112basic_stringIcSt11char_traitsIcESaIcEEES6_.exit, %33
  call void @_ZNSt7__cxx1112basic_stringIcSt11char_traitsIcESaIcEED1Ev(ptr noundef nonnull align 8 dereferenceable(32) %5) #22
  br label %34

34:                                               ; preds = %9, %_ZN13Probabilities10parse_lineERNSt7__cxx1112basic_stringIcSt11char_traitsIcESaIcEEES6_.exit.thread
  %.1 = phi i1 [ %18, %_ZN13Probabilities10parse_lineERNSt7__cxx1112basic_stringIcSt11char_traitsIcESaIcEEES6_.exit.thread ], [ false, %9 ]
  call void @_ZNSt14basic_ifstreamIcSt11char_traitsIcEED1Ev(ptr noundef nonnull align 8 dereferenceable(256) %4) #22
  ret i1 %.1

35:                                               ; preds = %25, %11
  %.pn = phi { ptr, i32 } [ %lpad.phi, %25 ], [ %12, %11 ]
  call void @_ZNSt14basic_ifstreamIcSt11char_traitsIcEED1Ev(ptr noundef nonnull align 8 dereferenceable(256) %4) #22
  resume { ptr, i32 } %.pn
}